target datalayout = "e-m:e-p270:32:32-p271:32:32-p272:64:64-i64:64-i128:128-f80:128-n8:16:32:64-S128"
target triple = "x86_64-pc-linux-gnu"

%struct.crypto_onetimeauth_poly1305_state = type { [256 x i8] }

@_pad0 = internal constant [16 x i8] zeroinitializer, align 16

; Function Attrs: inlinehint nounwind ssp uwtable
define internal void @store64_le(ptr noundef %0, i64 noundef %1) #8 {
  %3 = alloca ptr, align 8
  %4 = alloca i64, align 8
  store ptr %0, ptr %3, align 8
  store i64 %1, ptr %4, align 8
  %5 = load ptr, ptr %3, align 8
  %6 = call ptr @memcpy.inline(ptr noundef %5, ptr noundef %4, i64 noundef 8) #9
  ret void
}

; Function Attrs: nounwind ssp uwtable
define internal i32 @_encrypt_detached(ptr noundef %0, ptr noundef %1, ptr noundef %2, ptr noundef %3, i64 noundef %4, ptr noundef %5, i64 noundef %6, ptr noundef %7, ptr noundef %8, ptr noundef %9) #0 {
  %11 = alloca ptr, align 8
  %12 = alloca ptr, align 8
  %13 = alloca ptr, align 8
  %14 = alloca ptr, align 8
  %15 = alloca i64, align 8
  %16 = alloca ptr, align 8
  %17 = alloca i64, align 8
  %18 = alloca ptr, align 8
  %19 = alloca ptr, align 8
  %20 = alloca ptr, align 8
  %21 = alloca %struct.crypto_onetimeauth_poly1305_state, align 16
  %22 = alloca [64 x i8], align 16
  %23 = alloca [8 x i8], align 1
  store ptr %0, ptr %11, align 8
  store ptr %1, ptr %12, align 8
  store ptr %2, ptr %13, align 8
  store ptr %3, ptr %14, align 8
  store i64 %4, ptr %15, align 8
  store ptr %5, ptr %16, align 8
  store i64 %6, ptr %17, align 8
  store ptr %7, ptr %18, align 8
  store ptr %8, ptr %19, align 8
  store ptr %9, ptr %20, align 8
  call void @llvm.lifetime.start.p0(i64 256, ptr %21) #9
  call void @llvm.lifetime.start.p0(i64 64, ptr %22) #9
  call void @llvm.lifetime.start.p0(i64 8, ptr %23) #9
  %24 = getelementptr inbounds [64 x i8], ptr %22, i64 0, i64 0
  %25 = load ptr, ptr %19, align 8
  %26 = load ptr, ptr %20, align 8
  %27 = call i32 @crypto_stream_chacha20_ietf_ext(ptr noundef %24, i64 noundef 64, ptr noundef %25, ptr noundef %26)
  %28 = getelementptr inbounds [64 x i8], ptr %22, i64 0, i64 0
  %29 = call i32 @crypto_onetimeauth_poly1305_init(ptr noundef %21, ptr noundef %28)
  %30 = getelementptr inbounds [64 x i8], ptr %22, i64 0, i64 0
  call void @sodium_memzero(ptr noundef %30, i64 noundef 64)
  %31 = load ptr, ptr %16, align 8
  %32 = load i64, ptr %17, align 8
  %33 = call i32 @crypto_onetimeauth_poly1305_update(ptr noundef %21, ptr noundef %31, i64 noundef %32)
  %34 = load i64, ptr %17, align 8
  %35 = sub i64 16, %34
  %36 = and i64 %35, 15
  %37 = call i32 @crypto_onetimeauth_poly1305_update(ptr noundef %21, ptr noundef @_pad0, i64 noundef %36)
  %38 = load ptr, ptr %11, align 8
  %39 = load ptr, ptr %14, align 8
  %40 = load i64, ptr %15, align 8
  %41 = load ptr, ptr %19, align 8
  %42 = load ptr, ptr %20, align 8
  %43 = call i32 @crypto_stream_chacha20_ietf_ext_xor_ic(ptr noundef %38, ptr noundef %39, i64 noundef %40, ptr noundef %41, i32 noundef 1, ptr noundef %42)
  %44 = load ptr, ptr %11, align 8
  %45 = load i64, ptr %15, align 8
  %46 = call i32 @crypto_onetimeauth_poly1305_update(ptr noundef %21, ptr noundef %44, i64 noundef %45)
  %47 = load i64, ptr %15, align 8
  %48 = sub i64 16, %47
  %49 = and i64 %48, 15
  %50 = call i32 @crypto_onetimeauth_poly1305_update(ptr noundef %21, ptr noundef @_pad0, i64 noundef %49)
  %51 = getelementptr inbounds [8 x i8], ptr %23, i64 0, i64 0
  %52 = load i64, ptr %17, align 8
  call void @store64_le(ptr noundef %51, i64 noundef %52)
  %53 = getelementptr inbounds [8 x i8], ptr %23, i64 0, i64 0
  %54 = call i32 @crypto_onetimeauth_poly1305_update(ptr noundef %21, ptr noundef %53, i64 noundef 8)
  %55 = getelementptr inbounds [8 x i8], ptr %23, i64 0, i64 0
  %56 = load i64, ptr %15, align 8
  call void @store64_le(ptr noundef %55, i64 noundef %56)
  %57 = getelementptr inbounds [8 x i8], ptr %23, i64 0, i64 0
  %58 = call i32 @crypto_onetimeauth_poly1305_update(ptr noundef %21, ptr noundef %57, i64 noundef 8)
  %59 = load ptr, ptr %12, align 8
  %60 = call i32 @crypto_onetimeauth_poly1305_final(ptr noundef %21, ptr noundef %59)
  call void @sodium_memzero(ptr noundef %21, i64 noundef 256)
  %61 = load ptr, ptr %13, align 8
  %62 = icmp ne ptr %61, null
  br i1 %62, label %63, label %65

63:                                               ; preds = %10
  %64 = load ptr, ptr %13, align 8
  store i64 16, ptr %64, align 8
  br label %65

65:                                               ; preds = %63, %10
  call void @llvm.lifetime.end.p0(i64 8, ptr %23) #9
  call void @llvm.lifetime.end.p0(i64 64, ptr %22) #9
  call void @llvm.lifetime.end.p0(i64 256, ptr %21) #9
  ret i32 0
}

; Function Attrs: alwaysinline nounwind
define internal ptr @memcpy.inline(ptr noalias nonnull %0, ptr noalias nonnull %1, i64 %2) #4 {
  %4 = alloca ptr, align 8
  %5 = alloca ptr, align 8
  %6 = alloca i64, align 8
  store ptr %0, ptr %4, align 8
  store ptr %1, ptr %5, align 8
  store i64 %2, ptr %6, align 8
  %7 = load ptr, ptr %4, align 8
  %8 = load ptr, ptr %5, align 8
  %9 = load i64, ptr %6, align 8
  %10 = load ptr, ptr %4, align 8
  %11 = call i64 @llvm.objectsize.i64.p0(ptr %10, i1 false, i1 true, i1 true)
  %12 = call ptr @__memcpy_chk(ptr noundef %7, ptr noundef %8, i64 noundef %9, i64 noundef %11) #9
  ret ptr %12
}

; Function Attrs: nounwind ssp uwtable
define dso_local i32 @crypto_aead_xchacha20poly1305_ietf_encrypt_detached(ptr noundef nonnull %0, ptr noundef nonnull %1, ptr noundef %2, ptr noundef %3, i64 noundef %4, ptr noundef %5, i64 noundef %6, ptr noundef %7, ptr noundef nonnull %8, ptr noundef nonnull %9) #0 {
  %11 = alloca ptr, align 8
  %12 = alloca ptr, align 8
  %13 = alloca ptr, align 8
  %14 = alloca ptr, align 8
  %15 = alloca i64, align 8
  %16 = alloca ptr, align 8
  %17 = alloca i64, align 8
  %18 = alloca ptr, align 8
  %19 = alloca ptr, align 8
  %20 = alloca ptr, align 8
  %21 = alloca [32 x i8], align 16
  %22 = alloca [12 x i8], align 1
  %23 = alloca i32, align 4
  store ptr %0, ptr %11, align 8
  store ptr %1, ptr %12, align 8
  store ptr %2, ptr %13, align 8
  store ptr %3, ptr %14, align 8
  store i64 %4, ptr %15, align 8
  store ptr %5, ptr %16, align 8
  store i64 %6, ptr %17, align 8
  store ptr %7, ptr %18, align 8
  store ptr %8, ptr %19, align 8
  store ptr %9, ptr %20, align 8
  call void @llvm.lifetime.start.p0(i64 32, ptr %21) #9
  call void @llvm.lifetime.start.p0(i64 12, ptr %22) #9
  call void @llvm.memset.p0.i64(ptr align 1 %22, i8 0, i64 12, i1 false)
  call void @llvm.lifetime.start.p0(i64 4, ptr %23) #9
  %24 = getelementptr inbounds [32 x i8], ptr %21, i64 0, i64 0
  %25 = load ptr, ptr %19, align 8
  %26 = load ptr, ptr %20, align 8
  %27 = call i32 @crypto_core_hchacha20(ptr noundef %24, ptr noundef %25, ptr noundef %26, ptr noundef null)
  %28 = getelementptr inbounds [12 x i8], ptr %22, i64 0, i64 0
  %29 = getelementptr i8, ptr %28, i64 4
  %30 = load ptr, ptr %19, align 8
  %31 = getelementptr i8, ptr %30, i64 16
  %32 = call ptr @memcpy.inline(ptr noundef %29, ptr noundef %31, i64 noundef 8) #9
  %33 = load ptr, ptr %11, align 8
  %34 = load ptr, ptr %12, align 8
  %35 = load ptr, ptr %13, align 8
  %36 = load ptr, ptr %14, align 8
  %37 = load i64, ptr %15, align 8
  %38 = load ptr, ptr %16, align 8
  %39 = load i64, ptr %17, align 8
  %40 = load ptr, ptr %18, align 8
  %41 = getelementptr inbounds [12 x i8], ptr %22, i64 0, i64 0
  %42 = getelementptr inbounds [32 x i8], ptr %21, i64 0, i64 0
  %43 = call i32 @_encrypt_detached(ptr noundef %33, ptr noundef %34, ptr noundef %35, ptr noundef %36, i64 noundef %37, ptr noundef %38, i64 noundef %39, ptr noundef %40, ptr noundef %41, ptr noundef %42)
  store i32 %43, ptr %23, align 4
  %44 = getelementptr inbounds [32 x i8], ptr %21, i64 0, i64 0
  call void @sodium_memzero(ptr noundef %44, i64 noundef 32)
  %45 = load i32, ptr %23, align 4
  call void @llvm.lifetime.end.p0(i64 4, ptr %23) #9
  call void @llvm.lifetime.end.p0(i64 12, ptr %22) #9
  call void @llvm.lifetime.end.p0(i64 32, ptr %21) #9
  ret i32 %45
}