; Function Attrs: nounwind ssp uwtable
define dso_local noundef i32 @crypto_aead_xchacha20poly1305_ietf_encrypt_detached(ptr noundef nonnull %0, ptr noundef nonnull %1, ptr noundef writeonly captures(address_is_null) %2, ptr noundef %3, i64 noundef %4, ptr noundef %5, i64 noundef %6, ptr readnone captures(none) %7, ptr noundef nonnull %8, ptr noundef nonnull %9) local_unnamed_addr #0 {
  %11 = alloca %struct.crypto_onetimeauth_poly1305_state, align 16
  %12 = alloca [64 x i8], align 16
  %13 = alloca [8 x i8], align 8
  %14 = alloca [32 x i8], align 16
  %15 = alloca [12 x i8], align 4
  call void @llvm.lifetime.start.p0(i64 32, ptr nonnull %14) #6
  call void @llvm.lifetime.start.p0(i64 12, ptr nonnull %15) #6
  store i32 0, ptr %15, align 4
  %16 = call i32 @crypto_core_hchacha20(ptr noundef nonnull %14, ptr noundef nonnull %8, ptr noundef nonnull %9, ptr noundef null) #6
  %17 = getelementptr inbounds nuw i8, ptr %15, i64 4
  %18 = getelementptr i8, ptr %8, i64 16
  %19 = load i64, ptr %18, align 1
  store i64 %19, ptr %17, align 4
  call void @llvm.lifetime.start.p0(i64 256, ptr nonnull %11) #6
  call void @llvm.lifetime.start.p0(i64 64, ptr nonnull %12) #6
  call void @llvm.lifetime.start.p0(i64 8, ptr nonnull %13) #6
  %20 = call i32 @crypto_stream_chacha20_ietf_ext(ptr noundef nonnull %12, i64 noundef 64, ptr noundef nonnull %15, ptr noundef nonnull %14) #6
  %21 = call i32 @crypto_onetimeauth_poly1305_init(ptr noundef nonnull %11, ptr noundef nonnull %12) #6
  call void @sodium_memzero(ptr noundef nonnull %12, i64 noundef 64) #6
  %22 = call i32 @crypto_onetimeauth_poly1305_update(ptr noundef nonnull %11, ptr noundef %5, i64 noundef %6) #6
  %23 = sub i64 0, %6
  %24 = and i64 %23, 15
  %25 = call i32 @crypto_onetimeauth_poly1305_update(ptr noundef nonnull %11, ptr noundef nonnull @_pad0, i64 noundef %24) #6
  %26 = call i32 @crypto_stream_chacha20_ietf_ext_xor_ic(ptr noundef nonnull %0, ptr noundef %3, i64 noundef %4, ptr noundef nonnull %15, i32 noundef 1, ptr noundef nonnull %14) #6
  %27 = call i32 @crypto_onetimeauth_poly1305_update(ptr noundef nonnull %11, ptr noundef nonnull %0, i64 noundef %4) #6
  %28 = sub i64 0, %4
  %29 = and i64 %28, 15
  %30 = call i32 @crypto_onetimeauth_poly1305_update(ptr noundef nonnull %11, ptr noundef nonnull @_pad0, i64 noundef %29) #6
  store i64 %6, ptr %13, align 8
  %31 = call i32 @crypto_onetimeauth_poly1305_update(ptr noundef nonnull %11, ptr noundef nonnull %13, i64 noundef 8) #6
  store i64 %4, ptr %13, align 8
  %32 = call i32 @crypto_onetimeauth_poly1305_update(ptr noundef nonnull %11, ptr noundef nonnull %13, i64 noundef 8) #6
  %33 = call i32 @crypto_onetimeauth_poly1305_final(ptr noundef nonnull %11, ptr noundef nonnull %1) #6
  call void @sodium_memzero(ptr noundef nonnull %11, i64 noundef 256) #6
  %.not.i = icmp eq ptr %2, null
  br i1 %.not.i, label %_encrypt_detached.exit, label %34

34:                                               ; preds = %10
  store i64 16, ptr %2, align 8
  br label %_encrypt_detached.exit

_encrypt_detached.exit:                           ; preds = %10, %34
  call void @llvm.lifetime.end.p0(i64 8, ptr nonnull %13) #6
  call void @llvm.lifetime.end.p0(i64 64, ptr nonnull %12) #6
  call void @llvm.lifetime.end.p0(i64 256, ptr nonnull %11) #6
  call void @sodium_memzero(ptr noundef nonnull %14, i64 noundef 32) #6
  call void @llvm.lifetime.end.p0(i64 12, ptr nonnull %15) #6
  call void @llvm.lifetime.end.p0(i64 32, ptr nonnull %14) #6
  ret i32 0
}